; Function Attrs: mustprogress uwtable
define internal noundef zeroext i1 @_ZN7testing8internal11MatcherBaseIRKN4absl4SpanIKNS2_18container_internal12_GLOBAL__N_16Int128EEEE19MatchAndExplainImplINSB_11ValuePolicyIPKNS_16MatcherInterfaceISA_EELb1EEEEEDTcldtclsrT_3Getfp_E15MatchAndExplainfp0_fp1_EERKSB_SA_PNS_19MatchResultListenerE(ptr nocapture noundef nonnull readonly align 8 dereferenceable(24) %m, ptr noundef nonnull align 8 dereferenceable(16) %value, ptr noundef %listener) #3 align 2 {
entry:
  %0 = getelementptr inbounds i8, ptr %m, i64 16
  %m.val = load ptr, ptr %0, align 8
  %1 = getelementptr i8, ptr %m.val, i64 8
  %m.val.val = load ptr, ptr %1, align 8
  %vtable = load ptr, ptr %m.val.val, align 8
  %vfn = getelementptr inbounds i8, ptr %vtable, i64 32
  %2 = load ptr, ptr %vfn, align 8
  %call1 = tail call noundef zeroext i1 %2(ptr noundef nonnull align 8 dereferenceable(8) %m.val.val, ptr noundef nonnull align 8 dereferenceable(16) %value, ptr noundef %listener)
  ret i1 %call1
}